; Function Attrs: mustprogress uwtable
define noundef zeroext i16 @_ZNK4lean3mpz5mod16Ev(ptr noundef nonnull align 8 dereferenceable(16) %0) local_unnamed_addr #2 align 2 personality ptr @__gxx_personality_v0 {
  %2 = alloca %"class.lean::mpz", align 8
  call void @llvm.lifetime.start.p0(i64 16, ptr nonnull %2) #18
  call void @_ZN4lean3mpzC1Ev(ptr noundef nonnull align 8 dereferenceable(16) %2)
  invoke void @__gmpz_fdiv_r_2exp(ptr noundef nonnull %2, ptr noundef nonnull %0, i64 noundef 16)
          to label %3 unwind label %11

3:                                                ; preds = %1
  %4 = getelementptr inbounds nuw i8, ptr %2, i64 8
  %5 = load ptr, ptr %4, align 8, !tbaa !10
  %6 = getelementptr inbounds nuw i8, ptr %2, i64 4
  %7 = load i32, ptr %6, align 4, !tbaa !3
  %8 = load i64, ptr %5, align 8, !tbaa !11
  %.not.i.i = icmp eq i32 %7, 0
  %9 = trunc i64 %8 to i16
  %10 = select i1 %.not.i.i, i16 0, i16 %9
  call void @_ZN4lean3mpzD1Ev(ptr noundef nonnull align 8 dereferenceable(16) %2) #18
  call void @llvm.lifetime.end.p0(i64 16, ptr nonnull %2) #18
  ret i16 %10

11:                                               ; preds = %1
  %12 = landingpad { ptr, i32 }
          cleanup
  call void @_ZN4lean3mpzD1Ev(ptr noundef nonnull align 8 dereferenceable(16) %2) #18
  call void @llvm.lifetime.end.p0(i64 16, ptr nonnull %2) #18
  resume { ptr, i32 } %12
}